(dp1
S'counts'
p2
(lp3
I1
aI2
aI3
aI4
aI5
aI6
aI7
aI8
aI9
aI10
aI11
aI12
aI13
aI14
aI15
aI16
aI17
aI18
aI19
aI20
aI21
aI26
aI28
aI29
aI30
aI31
aI33
aI35
aI38
aI42
aI52
aI59
aI62
aI71
aI79
aI105
aI114
aI182
aI231
asS'total'
p4
(lp5
I22789228
aI10405920
aI3218262
aI856712
aI222370
aI58620
aI15876
aI4912
aI1386
aI620
aI308
aI240
aI234
aI140
aI210
aI32
aI170
aI108
aI114
aI80
aI42
aI52
aI56
aI58
aI60
aI124
aI66
aI280
aI76
aI168
aI104
aI118
aI124
aI142
aI158
aI210
aI228
aI364
aI462
asS'fm'
p6
(lp7
I22789228
aI5202960
aI1072754
aI214178
aI44474
aI9770
aI2268
aI614
aI154
aI62
aI28
aI20
aI18
aI10
aI14
aI2
aI10
aI6
aI6
aI4
aI2
aI2
aI2
aI2
aI2
aI4
aI2
aI8
aI2
aI4
aI2
aI2
aI2
aI2
aI2
aI2
aI2
aI2
aI2
as.