(dp1
S'counts'
p2
(lp3
I2765414
aI154954
aI62394
aI31480
aI17698
aI11004
aI7104
aI4546
aI3350
aI2388
aI1642
aI1290
aI988
aI768
aI644
aI570
aI440
aI396
aI276
aI274
aI264
aI222
aI202
aI178
aI160
aI200
aI176
aI156
aI98
aI102
aI106
aI94
aI84
aI80
aI100
aI82
aI100
aI88
aI80
aI94
aI76
aI66
aI68
aI74
aI76
aI72
aI70
aI60
aI60
aI48
aI48
aI60
aI52
aI50
aI64
aI56
aI54
aI42
aI46
aI50
aI62
aI40
aI62
aI60
aI52
aI58
aI34
aI42
aI52
aI46
aI32
aI52
aI58
aI64
aI56
aI40
aI50
aI56
aI40
aI52
aI44
aI44
aI50
aI48
aI64
aI40
aI38
aI60
aI52
aI60
aI38
aI44
aI72
aI62
aI58
aI58
aI56
aI66
aI54
aI76
aI58
aI42
aI88
aI70
aI86
aI84
aI82
aI68
aI80
aI60
aI80
aI124
aI92
aI86
aI80
aI62
aI92
aI96
aI104
aI102
aI104
aI106
aI118
aI106
aI122
aI114
aI94
aI104
aI96
aI90
aI134
aI132
aI134
aI128
aI112
aI78
aI116
aI142
aI106
aI134
aI110
aI132
aI108
aI116
aI134
aI120
aI120
aI120
aI132
aI136
aI114
aI144
aI136
aI122
aI116
aI140
aI136
aI128
aI126
aI150
aI126
aI122
aI120
aI110
aI140
aI136
aI120
aI140
aI104
aI130
aI126
aI142
aI124
aI120
aI128
aI112
aI110
aI102
aI110
aI116
aI138
aI124
aI136
aI132
aI94
aI108
aI108
aI106
aI96
aI124
aI100
aI112
aI104
aI132
aI92
aI112
aI134
aI118
aI108
aI110
aI86
aI120
aI112
aI114
aI106
aI92
aI122
aI102
aI124
aI98
aI116
aI96
aI118
aI126
aI130
aI120
aI136
aI94
aI100
aI88
aI122
aI84
aI96
aI126
aI114
aI96
aI108
aI126
aI90
aI116
aI104
aI112
aI96
aI102
aI82
aI116
aI102
aI108
aI118
aI116
aI144
aI104
aI108
aI94
aI104
aI100
aI94
aI108
aI80
aI108
aI110
aI88
aI132
aI104
aI84
aI90
aI84
aI104
aI96
aI112
aI102
aI102
aI96
aI96
aI108
aI104
aI94
aI82
aI96
aI86
aI124
aI98
aI96
aI100
aI130
aI122
aI96
aI102
aI90
aI106
aI106
aI118
aI108
aI80
aI114
aI106
aI98
aI84
aI96
aI92
aI102
aI102
aI118
aI90
aI86
aI104
aI116
aI112
aI88
aI98
aI108
aI96
aI96
aI120
aI122
aI112
aI94
aI124
aI90
aI98
aI120
aI102
aI90
aI84
aI118
aI94
aI92
aI112
aI112
aI138
aI102
aI104
aI88
aI100
aI114
aI102
aI114
aI98
aI78
aI122
aI112
aI96
aI94
aI98
aI90
aI96
aI80
aI96
aI90
aI106
aI114
aI94
aI98
aI94
aI90
aI98
aI88
aI100
aI76
aI102
aI126
aI82
aI136
aI102
aI120
aI102
aI80
aI110
aI118
aI114
aI96
aI100
aI128
aI86
aI116
aI118
aI110
aI86
aI98
aI118
aI128
aI114
aI82
aI92
aI106
aI110
aI106
aI92
aI112
aI118
aI88
aI114
aI96
aI86
aI110
aI108
aI104
aI104
aI104
aI84
aI104
aI110
aI102
aI82
aI88
aI116
aI108
aI92
aI114
aI106
aI84
aI100
aI104
aI108
aI92
aI82
aI94
aI100
aI104
aI142
aI118
aI110
aI80
aI106
aI116
aI124
aI132
aI122
aI136
aI118
aI110
aI90
aI124
aI136
aI114
aI84
aI110
aI140
aI88
aI108
aI106
aI114
aI130
aI132
aI120
aI80
aI108
aI80
aI158
aI118
aI122
aI130
aI124
aI94
aI92
aI114
aI100
aI80
aI128
aI82
aI110
aI116
aI140
aI118
aI120
aI126
aI90
aI110
aI102
aI90
aI98
aI144
aI128
aI80
aI138
aI106
aI124
aI136
aI104
aI116
aI120
aI110
aI112
aI114
aI120
aI118
aI102
aI114
aI150
aI118
aI106
aI126
aI128
aI104
aI116
aI100
aI130
aI116
aI130
aI116
aI126
aI116
aI128
aI138
aI122
aI140
aI114
aI90
aI122
aI114
aI124
aI134
aI102
aI106
aI112
aI142
aI120
aI138
aI82
aI122
aI78
aI126
aI126
aI130
aI94
aI110
aI148
aI156
aI146
aI126
aI124
aI122
aI152
aI134
aI136
aI138
aI102
aI132
aI148
aI124
aI142
aI166
aI108
aI130
aI146
aI102
aI138
aI120
aI148
aI152
aI142
aI126
aI138
aI138
aI130
aI148
aI130
aI158
aI140
aI112
aI120
aI134
aI122
aI172
aI122
aI120
aI116
aI144
aI132
aI164
aI128
aI118
aI144
aI126
aI140
aI128
aI136
aI108
aI136
aI160
aI134
aI138
aI152
aI146
aI108
aI126
aI126
aI148
aI130
aI108
aI124
aI160
aI142
aI134
aI134
aI138
aI190
aI138
aI110
aI130
aI120
aI116
aI126
aI114
aI94
aI126
aI142
aI158
aI116
aI142
aI126
aI134
aI146
aI138
aI140
aI146
aI120
aI152
aI106
aI124
aI118
aI148
aI178
aI114
aI130
aI140
aI136
aI120
aI144
aI140
aI148
aI142
aI158
aI126
aI122
aI152
aI132
aI112
aI120
aI154
aI130
aI106
aI124
aI108
aI106
aI106
aI126
aI108
aI106
aI118
aI150
aI134
aI126
aI104
aI144
aI108
aI120
aI112
aI108
aI126
aI126
aI104
aI112
aI114
aI130
aI130
aI126
aI114
aI106
aI88
aI104
aI106
aI124
aI112
aI106
aI110
aI82
aI104
aI102
aI110
aI114
aI100
aI110
aI126
aI118
aI134
aI116
aI92
aI106
aI108
aI108
aI114
aI112
aI72
aI86
aI108
aI122
aI108
aI90
aI118
aI102
aI70
aI98
aI88
aI74
aI94
aI100
aI116
aI130
aI96
aI100
aI92
aI98
aI86
aI92
aI144
aI76
aI96
aI94
aI110
aI86
aI98
aI82
aI100
aI88
aI86
aI100
aI64
aI110
aI96
aI90
aI88
aI86
aI86
aI104
aI108
aI102
aI68
aI92
aI100
aI80
aI80
aI60
aI84
aI64
aI90
aI98
aI80
aI108
aI76
aI74
aI66
aI72
aI80
aI86
aI44
aI70
aI80
aI96
aI72
aI94
aI86
aI62
aI86
aI70
aI84
aI66
aI98
aI106
aI100
aI70
aI82
aI78
aI98
aI78
aI104
aI60
aI90
aI84
aI62
aI68
aI72
aI68
aI54
aI72
aI72
aI62
aI78
aI66
aI52
aI76
aI50
aI66
aI82
aI56
aI58
aI50
aI58
aI58
aI48
aI66
aI40
aI54
aI72
aI60
aI50
aI54
aI50
aI66
aI66
aI68
aI50
aI62
aI38
aI56
aI54
aI48
aI36
aI60
aI58
aI64
aI50
aI60
aI60
aI56
aI46
aI64
aI56
aI50
aI40
aI38
aI54
aI56
aI66
aI36
aI46
aI44
aI48
aI40
aI42
aI58
aI40
aI58
aI32
aI52
aI58
aI42
aI40
aI50
aI58
aI50
aI38
aI38
aI38
aI62
aI40
aI42
aI30
aI52
aI60
aI38
aI28
aI34
aI54
aI42
aI34
aI58
aI40
aI46
aI22
aI36
aI40
aI44
aI34
aI30
aI34
aI20
aI36
aI24
aI26
aI36
aI30
aI38
aI46
aI24
aI34
aI30
aI22
aI30
aI32
aI38
aI30
aI34
aI20
aI14
aI36
aI38
aI24
aI24
aI24
aI36
aI34
aI30
aI26
aI28
aI30
aI30
aI10
aI28
aI30
aI30
aI20
aI18
aI10
aI16
aI28
aI20
aI20
aI32
aI22
aI14
aI30
aI42
aI28
aI28
aI16
aI12
aI22
aI30
aI28
aI22
aI30
aI26
aI20
aI16
aI14
aI18
aI8
aI38
aI26
aI24
aI36
aI18
aI22
aI20
aI16
aI24
aI14
aI10
aI28
aI14
aI24
aI16
aI24
aI22
aI10
aI18
aI28
aI20
aI18
aI14
aI34
aI16
aI16
aI26
aI4
aI12
aI16
aI22
aI18
aI12
aI8
aI14
aI16
aI20
aI8
aI22
aI10
aI12
aI10
aI14
aI10
aI6
aI22
aI14
aI18
aI12
aI6
aI18
aI10
aI12
aI8
aI10
aI6
aI20
aI22
aI8
aI16
aI14
aI6
aI8
aI8
aI6
aI4
aI20
aI10
aI12
aI14
aI16
aI10
aI8
aI4
aI8
aI4
aI20
aI12
aI22
aI14
aI6
aI16
aI10
aI4
aI16
aI10
aI8
aI14
aI14
aI6
aI6
aI4
aI8
aI8
aI6
aI4
aI4
aI10
aI6
aI6
aI8
aI6
aI6
aI12
aI12
aI4
aI2
aI6
aI12
aI2
aI6
aI14
aI10
aI8
aI2
aI12
aI2
aI8
aI4
aI4
aI18
aI10
aI4
aI24
aI10
aI4
aI8
aI8
aI2
aI12
aI14
aI10
aI2
aI6
aI6
aI8
aI6
aI12
aI4
aI2
aI8
aI8
aI4
aI6
aI2
aI2
aI8
aI4
aI2
aI2
aI6
aI6
aI12
aI4
aI2
aI6
aI2
aI6
aI4
aI2
aI2
aI2
aI2
aI2
aI6
aI6
aI2
aI6
aI2
aI6
aI4
aI2
aI8
aI2
aI4
aI4
aI2
aI2
aI6
aI2
aI2
aI4
aI2
aI2
aI6
aI6
aI2
aI2
aI2
aI2
aI2
aI4
aI2
aI2
aI6
aI2
aI4
aI2
aI2
aI2
aI2
aI4
aI4
aI6
aI2
aI6
aI2
aI2
aI2
aI6
aI4
aI2
aI2
aI4
aI4
aI4
aI2
aI4
aI2
aI4
aI6
aI2
aI2
aI4
aI2
aI4
aI4
aI2
aI2
aI2
aI4
aI2
aI4
aI2
aI2
aI4
aI4
aI2
aI2
aI2
aI4
aI2
aI2
aI2
aI2
aI2
aI2
aI2
aI2
aI2
aI2
aI2
aI2
aI2
aI2
aI2
aI6
aI4
aI4
aI2
aI4
aI2
aI2
aI4
aI2
aI2
aI2
aI2
aI2
aI2
aI2
aI2
aI2
aI2
aI2
aI2
aI2
aI2
aI2
aI2
aI2
aI2
aI2
aI2
aI2
aI2
aI2
aI2
aI2
aI2
aI2
aI2
aI2
aI2
aI2
aI2
aI2
aI2
aI2
aI2
aI2
aI2
aI2
aI2
aI4
aI2
aI2
aI2
aI2
aI2
aI2
aI2
aI2
aI2
aI2
aI2
aI2
asS'total'
p4
(lp5
I2765414
aI309908
aI187182
aI125920
aI88490
aI66024
aI49728
aI36368
aI30150
aI23880
aI18062
aI15480
aI12844
aI10752
aI9660
aI9120
aI7480
aI7128
aI5244
aI5480
aI5544
aI4884
aI4646
aI4272
aI4000
aI5200
aI4752
aI4368
aI2842
aI3060
aI3286
aI3008
aI2772
aI2720
aI3500
aI2952
aI3700
aI3344
aI3120
aI3760
aI3116
aI2772
aI2924
aI3256
aI3420
aI3312
aI3290
aI2880
aI2940
aI2400
aI2448
aI3120
aI2756
aI2700
aI3520
aI3136
aI3078
aI2436
aI2714
aI3000
aI3782
aI2480
aI3906
aI3840
aI3380
aI3828
aI2278
aI2856
aI3588
aI3220
aI2272
aI3744
aI4234
aI4736
aI4200
aI3040
aI3850
aI4368
aI3160
aI4160
aI3564
aI3608
aI4150
aI4032
aI5440
aI3440
aI3306
aI5280
aI4628
aI5400
aI3458
aI4048
aI6696
aI5828
aI5510
aI5568
aI5432
aI6468
aI5346
aI7600
aI5858
aI4284
aI9064
aI7280
aI9030
aI8904
aI8774
aI7344
aI8720
aI6600
aI8880
aI13888
aI10396
aI9804
aI9200
aI7192
aI10764
aI11328
aI12376
aI12240
aI12584
aI12932
aI14514
aI13144
aI15250
aI14364
aI11938
aI13312
aI12384
aI11700
aI17554
aI17424
aI17822
aI17152
aI15120
aI10608
aI15892
aI19596
aI14734
aI18760
aI15510
aI18744
aI15444
aI16704
aI19430
aI17520
aI17640
aI17760
aI19668
aI20400
aI17214
aI21888
aI20808
aI18788
aI17980
aI21840
aI21352
aI20224
aI20034
aI24000
aI20286
aI19764
aI19560
aI18040
aI23100
aI22576
aI20040
aI23520
aI17576
aI22100
aI21546
aI24424
aI21452
aI20880
aI22400
aI19712
aI19470
aI18156
aI19690
aI20880
aI24978
aI22568
aI24888
aI24288
aI17390
aI20088
aI20196
aI19928
aI18144
aI23560
aI19100
aI21504
aI20072
aI25608
aI17940
aI21952
aI26398
aI23364
aI21492
aI22000
aI17286
aI24240
aI22736
aI23256
aI21730
aI18952
aI25254
aI21216
aI25916
aI20580
aI24476
aI20352
aI25134
aI26964
aI27950
aI25920
aI29512
aI20492
aI21900
aI19360
aI26962
aI18648
aI21408
aI28224
aI25650
aI21696
aI24516
aI28728
aI20610
aI26680
aI24024
aI25984
aI22368
aI23868
aI19270
aI27376
aI24174
aI25704
aI28202
aI27840
aI34704
aI25168
aI26244
aI22936
aI25480
aI24600
aI23218
aI26784
aI19920
aI27000
aI27610
aI22176
aI33396
aI26416
aI21420
aI23040
aI21588
aI26832
aI24864
aI29120
aI26622
aI26724
aI25248
aI25344
aI28620
aI27664
aI25098
aI21976
aI25824
aI23220
aI33604
aI26656
aI26208
aI27400
aI35750
aI33672
aI26592
aI28356
aI25110
aI29680
aI29786
aI33276
aI30564
aI22720
aI32490
aI30316
aI28126
aI24192
aI27744
aI26680
aI29682
aI29784
aI34574
aI26460
aI25370
aI30784
aI34452
aI33376
aI26312
aI29400
aI32508
aI28992
aI29088
aI36480
aI37210
aI34272
aI28858
aI38192
aI27810
aI30380
aI37320
aI31824
aI28170
aI26376
aI37170
aI29704
aI29164
aI35616
aI35728
aI44160
aI32742
aI33488
aI28424
aI32400
aI37050
aI33252
aI37278
aI32144
aI25662
aI40260
aI37072
aI31872
aI31302
aI32732
aI30150
aI32256
aI26960
aI32448
aI30510
aI36040
aI38874
aI32148
aI33614
aI32336
aI31050
aI33908
aI30536
aI34800
aI26524
aI35700
aI44226
aI28864
aI48008
aI36108
aI42600
aI36312
aI28560
aI39380
aI42362
aI41040
aI34656
aI36200
aI46464
aI31304
aI42340
aI43188
aI40370
aI31648
aI36162
aI43660
aI47488
aI42408
aI30586
aI34408
aI39750
aI41360
aI39962
aI34776
aI42448
aI44840
aI33528
aI43548
aI36768
aI33024
aI42350
aI41688
aI40248
aI40352
aI40456
aI32760
aI40664
aI43120
aI40086
aI32308
aI34760
aI45936
aI42876
aI36616
aI45486
aI42400
aI33684
aI40200
aI41912
aI43632
aI37260
aI33292
aI38258
aI40800
aI42536
aI58220
aI48498
aI45320
aI33040
aI43884
aI48140
aI51584
aI55044
aI50996
aI56984
aI49560
aI46310
aI37980
aI52452
aI57664
aI48450
aI35784
aI46970
aI59920
aI37752
aI46440
aI45686
aI49248
aI56290
aI57288
aI52200
aI34880
aI47196
aI35040
aI69362
aI51920
aI53802
aI57460
aI54932
aI41736
aI40940
aI50844
aI44700
aI35840
aI57472
aI36900
aI49610
aI52432
aI63420
aI53572
aI54600
aI57456
aI41130
aI50380
aI46818
aI41400
aI45178
aI66528
aI59264
aI37120
aI64170
aI49396
aI57908
aI63648
aI48776
aI54520
aI56520
aI51920
aI52976
aI54036
aI57000
aI56168
aI48654
aI54492
aI71850
aI56640
aI50986
aI60732
aI61824
aI50336
aI56260
aI48600
aI63310
aI56608
aI63570
aI56840
aI61866
aI57072
aI63104
aI68172
aI60390
aI69440
aI56658
aI44820
aI60878
aI57000
aI62124
aI67268
aI51306
aI53424
aI56560
aI71852
aI60840
aI70104
aI41738
aI62220
aI39858
aI64512
aI64638
aI66820
aI48410
aI56760
aI76516
aI80808
aI75774
aI65520
aI64604
aI63684
aI79496
aI70216
aI71400
aI72588
aI53754
aI69696
aI78292
aI65720
aI75402
aI88312
aI57564
aI69420
aI78110
aI54672
aI74106
aI64560
aI79772
aI82080
aI76822
aI68292
aI74934
aI75072
aI70850
aI80808
aI71110
aI86584
aI76860
aI61600
aI66120
aI73968
aI67466
aI95288
aI67710
aI66720
aI64612
aI80352
aI73788
aI91840
aI71808
aI66316
aI81072
aI71064
aI79100
aI72448
aI77112
aI61344
aI77384
aI91200
aI76514
aI78936
aI87096
aI83804
aI62100
aI72576
aI72702
aI85544
aI75270
aI62640
aI72044
aI93120
aI82786
aI78256
aI78390
aI80868
aI111530
aI81144
aI64790
aI76700
aI70920
aI68672
aI74718
aI67716
aI55930
aI75096
aI84774
aI94484
aI69484
aI85200
aI75726
aI80668
aI88038
aI83352
aI84700
aI88476
aI72840
aI92416
aI64554
aI75640
aI72098
aI90576
aI109114
aI69996
aI79950
aI86240
aI83912
aI74160
aI89136
aI86800
aI91908
aI88324
aI98434
aI78624
aI76250
aI95152
aI82764
aI70336
aI75480
aI97020
aI82030
aI66992
aI78492
aI68472
aI67310
aI67416
aI80262
aI68904
aI67734
aI75520
aI96150
aI86028
aI81018
aI66976
aI92880
aI69768
aI77640
aI72576
aI70092
aI81900
aI82026
aI67808
aI73136
aI74556
aI85150
aI85280
aI82782
aI75012
aI69854
aI58080
aI68744
aI70172
aI82212
aI74368
aI70490
aI73260
aI54694
aI69472
aI68238
aI73700
aI76494
aI67200
aI74030
aI84924
aI79650
aI90584
aI78532
aI62376
aI71974
aI73440
aI73548
aI77748
aI76496
aI49248
aI58910
aI74088
aI83814
aI74304
aI62010
aI81420
aI70482
aI48440
aI67914
aI61072
aI51430
aI65424
aI69700
aI80968
aI90870
aI67200
aI70100
aI64584
aI68894
aI60544
aI64860
aI101664
aI53732
aI67968
aI66646
aI78100
aI61146
aI69776
aI58466
aI71400
aI62920
aI61576
aI71700
aI45952
aI79090
aI69120
aI64890
aI63536
aI62178
aI62264
aI75400
aI78408
aI74154
aI49504
aI67068
aI73000
aI58480
aI58560
aI43980
aI61656
aI47040
aI66240
aI72226
aI59040
aI79812
aI56240
aI54834
aI48972
aI53496
aI59520
aI64070
aI32824
aI52290
aI59840
aI71904
aI54000
aI70594
aI64672
aI46686
aI64844
aI52850
aI63504
aI49962
aI74284
aI80454
aI76000
aI53270
aI62484
aI59514
aI74872
aI59670
aI79664
aI46020
aI69120
aI64596
aI47740
aI52428
aI55584
aI52564
aI41796
aI55800
aI55872
aI48174
aI60684
aI51414
aI40560
aI59356
aI39100
aI51678
aI64288
aI43960
aI45588
aI39350
aI45704
aI45762
aI37920
aI52206
aI31680
aI42822
aI57168
aI47700
aI39800
aI43038
aI39900
aI52734
aI52800
aI54468
aI40100
aI49786
aI30552
aI45080
aI43524
aI38736
aI29088
aI48540
aI46980
aI51904
aI40600
aI48780
aI48840
aI45640
aI37536
aI52288
aI45808
aI40950
aI32800
aI31198
aI44388
aI46088
aI54384
aI29700
aI37996
aI36388
aI39744
aI33160
aI34860
aI48198
aI33280
aI48314
aI26688
aI43420
aI48488
aI35154
aI33520
aI41950
aI48720
aI42050
aI31996
aI32034
aI32072
aI52390
aI33840
aI35574
aI25440
aI44148
aI51000
aI32338
aI23856
aI29002
aI46116
aI35910
aI29104
aI49706
aI34320
aI39514
aI18920
aI30996
aI34480
aI37972
aI29376
aI25950
aI29444
aI17340
aI31248
aI20856
aI22620
aI31356
aI26160
aI33174
aI40204
aI21000
aI29784
aI26310
aI19316
aI26370
aI28160
aI33478
aI26460
aI30022
aI17680
aI12390
aI31896
aI33706
aI21312
aI21336
aI21360
aI32076
aI30328
aI26790
aI23244
aI25060
aI26880
aI26910
aI8980
aI25172
aI27000
aI27030
aI18040
aI16254
aI9040
aI14480
aI25368
aI18140
aI18160
aI29088
aI20020
aI12754
aI27360
aI38346
aI25592
aI25620
aI14656
aI11004
aI20196
aI27570
aI25760
aI20262
aI27660
aI23998
aI18480
aI14800
aI12964
aI16686
aI7424
aI35302
aI24180
aI22344
aI33552
aI16794
aI20548
aI18700
aI14976
aI22488
aI13132
aI9390
aI26320
aI13174
aI22608
aI15088
aI22656
aI20790
aI9460
aI17046
aI26544
aI18980
aI17100
aI13314
aI32368
aI15248
aI15264
aI24830
aI3824
aI11484
aI15328
aI21098
aI17280
aI11532
aI7696
aI13482
aI15424
aI19300
aI7728
aI21274
aI9680
aI11628
aI9700
aI13594
aI9720
aI5838
aI21428
aI13650
aI17568
aI11724
aI5868
aI17622
aI9800
aI11772
aI7856
aI9830
aI5904
aI19700
aI21692
aI7896
aI15808
aI13846
aI5940
aI7928
aI7936
aI5958
aI3976
aI19900
aI9960
aI11964
aI13972
aI15984
aI10000
aI8008
aI4008
aI8024
aI4016
aI20100
aI12072
aI22154
aI14112
aI6054
aI16160
aI10110
aI4048
aI16208
aI10140
aI8120
aI14224
aI14238
aI6108
aI6114
aI4080
aI8168
aI8176
aI6138
aI4096
aI4100
aI10260
aI6162
aI6168
aI8232
aI6180
aI6186
aI12384
aI12396
aI4136
aI2070
aI6216
aI12444
aI2076
aI6234
aI14560
aI10410
aI8336
aI2086
aI12528
aI2090
aI8368
aI4188
aI4192
aI18882
aI10500
aI4204
aI25248
aI10530
aI4216
aI8448
aI8464
aI2118
aI12720
aI14854
aI10620
aI2126
aI6384
aI6390
aI8528
aI6402
aI12816
aI4276
aI2140
aI8568
aI8576
aI4292
aI6444
aI2150
aI2152
aI8616
aI4312
aI2158
aI2160
aI6486
aI6498
aI13008
aI4340
aI2172
aI6522
aI2176
aI6534
aI4360
aI2182
aI2184
aI2186
aI2188
aI2190
aI6576
aI6582
aI2198
aI6606
aI2204
aI6618
aI4416
aI2210
aI8848
aI2214
aI4432
aI4436
aI2220
aI2222
aI6672
aI2226
aI2228
aI4460
aI2234
aI2236
aI6714
aI6720
aI2244
aI2246
aI2248
aI2250
aI2252
aI4508
aI2258
aI2260
aI6786
aI2264
aI4532
aI2268
aI2270
aI2272
aI2274
aI4552
aI4556
aI6840
aI2284
aI6858
aI2288
aI2290
aI2292
aI6894
aI4600
aI2302
aI2304
aI4612
aI4620
aI4624
aI2314
aI4632
aI2320
aI4652
aI6984
aI2330
aI2332
aI4672
aI2338
aI4680
aI4688
aI2350
aI2352
aI2354
aI4712
aI2360
aI4736
aI2370
aI2376
aI4756
aI4760
aI2382
aI2388
aI2396
aI4796
aI2402
aI2410
aI2414
aI2418
aI2420
aI2422
aI2428
aI2434
aI2436
aI2442
aI2444
aI2446
aI2448
aI2450
aI2452
aI7398
aI4956
aI4960
aI2484
aI4980
aI2498
aI2500
aI5028
aI2520
aI2522
aI2524
aI2528
aI2550
aI2552
aI2560
aI2564
aI2574
aI2576
aI2598
aI2600
aI2610
aI2614
aI2624
aI2626
aI2632
aI2634
aI2636
aI2648
aI2662
aI2666
aI2682
aI2700
aI2742
aI2760
aI2768
aI2776
aI2782
aI2792
aI2820
aI2822
aI2874
aI2890
aI2912
aI2922
aI2938
aI2988
aI3038
aI3058
aI6156
aI3264
aI3288
aI3310
aI3452
aI3604
aI3654
aI3876
aI3942
aI3944
aI3970
aI4004
aI4084
asS'fm'
p6
(lp7
I1
aI2
aI3
aI4
aI5
aI6
aI7
aI8
aI9
aI10
aI11
aI12
aI13
aI14
aI15
aI16
aI17
aI18
aI19
aI20
aI21
aI22
aI23
aI24
aI25
aI26
aI27
aI28
aI29
aI30
aI31
aI32
aI33
aI34
aI35
aI36
aI37
aI38
aI39
aI40
aI41
aI42
aI43
aI44
aI45
aI46
aI47
aI48
aI49
aI50
aI51
aI52
aI53
aI54
aI55
aI56
aI57
aI58
aI59
aI60
aI61
aI62
aI63
aI64
aI65
aI66
aI67
aI68
aI69
aI70
aI71
aI72
aI73
aI74
aI75
aI76
aI77
aI78
aI79
aI80
aI81
aI82
aI83
aI84
aI85
aI86
aI87
aI88
aI89
aI90
aI91
aI92
aI93
aI94
aI95
aI96
aI97
aI98
aI99
aI100
aI101
aI102
aI103
aI104
aI105
aI106
aI107
aI108
aI109
aI110
aI111
aI112
aI113
aI114
aI115
aI116
aI117
aI118
aI119
aI120
aI121
aI122
aI123
aI124
aI125
aI126
aI127
aI128
aI129
aI130
aI131
aI132
aI133
aI134
aI135
aI136
aI137
aI138
aI139
aI140
aI141
aI142
aI143
aI144
aI145
aI146
aI147
aI148
aI149
aI150
aI151
aI152
aI153
aI154
aI155
aI156
aI157
aI158
aI159
aI160
aI161
aI162
aI163
aI164
aI165
aI166
aI167
aI168
aI169
aI170
aI171
aI172
aI173
aI174
aI175
aI176
aI177
aI178
aI179
aI180
aI181
aI182
aI183
aI184
aI185
aI186
aI187
aI188
aI189
aI190
aI191
aI192
aI193
aI194
aI195
aI196
aI197
aI198
aI199
aI200
aI201
aI202
aI203
aI204
aI205
aI206
aI207
aI208
aI209
aI210
aI211
aI212
aI213
aI214
aI215
aI216
aI217
aI218
aI219
aI220
aI221
aI222
aI223
aI224
aI225
aI226
aI227
aI228
aI229
aI230
aI231
aI232
aI233
aI234
aI235
aI236
aI237
aI238
aI239
aI240
aI241
aI242
aI243
aI244
aI245
aI246
aI247
aI248
aI249
aI250
aI251
aI252
aI253
aI254
aI255
aI256
aI257
aI258
aI259
aI260
aI261
aI262
aI263
aI264
aI265
aI266
aI267
aI268
aI269
aI270
aI271
aI272
aI273
aI274
aI275
aI276
aI277
aI278
aI279
aI280
aI281
aI282
aI283
aI284
aI285
aI286
aI287
aI288
aI289
aI290
aI291
aI292
aI293
aI294
aI295
aI296
aI297
aI298
aI299
aI300
aI301
aI302
aI303
aI304
aI305
aI306
aI307
aI308
aI309
aI310
aI311
aI312
aI313
aI314
aI315
aI316
aI317
aI318
aI319
aI320
aI321
aI322
aI323
aI324
aI325
aI326
aI327
aI328
aI329
aI330
aI331
aI332
aI333
aI334
aI335
aI336
aI337
aI338
aI339
aI340
aI341
aI342
aI343
aI344
aI345
aI346
aI347
aI348
aI349
aI350
aI351
aI352
aI353
aI354
aI355
aI356
aI357
aI358
aI359
aI360
aI361
aI362
aI363
aI364
aI365
aI366
aI367
aI368
aI369
aI370
aI371
aI372
aI373
aI374
aI375
aI376
aI377
aI378
aI379
aI380
aI381
aI382
aI383
aI384
aI385
aI386
aI387
aI388
aI389
aI390
aI391
aI392
aI393
aI394
aI395
aI396
aI397
aI398
aI399
aI400
aI401
aI402
aI403
aI404
aI405
aI406
aI407
aI408
aI409
aI410
aI411
aI412
aI413
aI414
aI415
aI416
aI417
aI418
aI419
aI420
aI421
aI422
aI423
aI424
aI425
aI426
aI427
aI428
aI429
aI430
aI431
aI432
aI433
aI434
aI435
aI436
aI437
aI438
aI439
aI440
aI441
aI442
aI443
aI444
aI445
aI446
aI447
aI448
aI449
aI450
aI451
aI452
aI453
aI454
aI455
aI456
aI457
aI458
aI459
aI460
aI461
aI462
aI463
aI464
aI465
aI466
aI467
aI468
aI469
aI470
aI471
aI472
aI473
aI474
aI475
aI476
aI477
aI478
aI479
aI480
aI481
aI482
aI483
aI484
aI485
aI486
aI487
aI488
aI489
aI490
aI491
aI492
aI493
aI494
aI495
aI496
aI497
aI498
aI499
aI500
aI501
aI502
aI503
aI504
aI505
aI506
aI507
aI508
aI509
aI510
aI511
aI512
aI513
aI514
aI515
aI516
aI517
aI518
aI519
aI520
aI521
aI522
aI523
aI524
aI525
aI526
aI527
aI528
aI529
aI530
aI531
aI532
aI533
aI534
aI535
aI536
aI537
aI538
aI539
aI540
aI541
aI542
aI543
aI544
aI545
aI546
aI547
aI548
aI549
aI550
aI551
aI552
aI553
aI554
aI555
aI556
aI557
aI558
aI559
aI560
aI561
aI562
aI563
aI564
aI565
aI566
aI567
aI568
aI569
aI570
aI571
aI572
aI573
aI574
aI575
aI576
aI577
aI578
aI579
aI580
aI581
aI582
aI583
aI584
aI585
aI586
aI587
aI588
aI589
aI590
aI591
aI592
aI593
aI594
aI595
aI596
aI597
aI598
aI599
aI600
aI601
aI602
aI603
aI604
aI605
aI606
aI607
aI608
aI609
aI610
aI611
aI612
aI613
aI614
aI615
aI616
aI617
aI618
aI619
aI620
aI621
aI622
aI623
aI624
aI625
aI626
aI627
aI628
aI629
aI630
aI631
aI632
aI633
aI634
aI635
aI636
aI637
aI638
aI639
aI640
aI641
aI642
aI643
aI644
aI645
aI646
aI647
aI648
aI649
aI650
aI651
aI652
aI653
aI654
aI655
aI656
aI657
aI658
aI659
aI660
aI661
aI662
aI663
aI664
aI665
aI666
aI667
aI668
aI669
aI670
aI671
aI672
aI673
aI674
aI675
aI676
aI677
aI678
aI679
aI680
aI681
aI682
aI683
aI684
aI685
aI686
aI687
aI688
aI689
aI690
aI691
aI692
aI693
aI694
aI695
aI696
aI697
aI698
aI699
aI700
aI701
aI702
aI703
aI704
aI705
aI706
aI707
aI708
aI709
aI710
aI711
aI712
aI713
aI714
aI715
aI716
aI717
aI718
aI719
aI720
aI721
aI722
aI723
aI724
aI725
aI726
aI727
aI728
aI729
aI730
aI731
aI732
aI733
aI734
aI735
aI736
aI737
aI738
aI739
aI740
aI741
aI742
aI743
aI744
aI745
aI746
aI747
aI748
aI749
aI750
aI751
aI752
aI753
aI754
aI755
aI756
aI757
aI758
aI759
aI760
aI761
aI762
aI763
aI764
aI765
aI766
aI767
aI768
aI769
aI770
aI771
aI772
aI773
aI774
aI775
aI776
aI777
aI778
aI779
aI780
aI781
aI782
aI783
aI784
aI785
aI786
aI787
aI788
aI789
aI790
aI791
aI792
aI793
aI794
aI795
aI796
aI797
aI798
aI799
aI800
aI801
aI802
aI803
aI804
aI805
aI806
aI807
aI808
aI809
aI810
aI811
aI812
aI813
aI814
aI815
aI816
aI817
aI818
aI819
aI820
aI821
aI822
aI823
aI824
aI825
aI826
aI827
aI828
aI829
aI830
aI831
aI832
aI833
aI834
aI835
aI836
aI837
aI838
aI839
aI840
aI841
aI842
aI843
aI844
aI845
aI846
aI847
aI848
aI849
aI850
aI851
aI852
aI853
aI854
aI855
aI856
aI857
aI858
aI859
aI860
aI861
aI862
aI863
aI864
aI865
aI866
aI867
aI868
aI869
aI870
aI871
aI872
aI873
aI874
aI875
aI876
aI877
aI878
aI879
aI880
aI881
aI882
aI883
aI884
aI885
aI886
aI887
aI888
aI889
aI890
aI891
aI892
aI893
aI894
aI895
aI896
aI897
aI898
aI899
aI900
aI901
aI902
aI903
aI904
aI905
aI906
aI907
aI908
aI909
aI910
aI911
aI912
aI913
aI914
aI915
aI916
aI917
aI918
aI919
aI920
aI921
aI922
aI923
aI924
aI925
aI926
aI927
aI928
aI929
aI930
aI931
aI932
aI933
aI934
aI935
aI936
aI937
aI938
aI939
aI940
aI941
aI942
aI943
aI944
aI945
aI946
aI947
aI948
aI949
aI950
aI951
aI952
aI953
aI954
aI955
aI956
aI957
aI958
aI959
aI960
aI961
aI962
aI963
aI964
aI965
aI966
aI967
aI968
aI969
aI970
aI971
aI972
aI973
aI974
aI975
aI976
aI977
aI978
aI979
aI980
aI981
aI982
aI983
aI984
aI985
aI986
aI987
aI988
aI989
aI990
aI991
aI992
aI993
aI994
aI995
aI996
aI997
aI998
aI999
aI1000
aI1001
aI1002
aI1003
aI1004
aI1005
aI1006
aI1007
aI1008
aI1009
aI1010
aI1011
aI1012
aI1013
aI1014
aI1015
aI1016
aI1017
aI1018
aI1019
aI1020
aI1021
aI1022
aI1023
aI1024
aI1025
aI1026
aI1027
aI1028
aI1029
aI1030
aI1031
aI1032
aI1033
aI1034
aI1035
aI1036
aI1037
aI1038
aI1039
aI1040
aI1041
aI1042
aI1043
aI1044
aI1045
aI1046
aI1047
aI1048
aI1049
aI1050
aI1051
aI1052
aI1053
aI1054
aI1056
aI1058
aI1059
aI1060
aI1061
aI1062
aI1063
aI1064
aI1065
aI1066
aI1067
aI1068
aI1069
aI1070
aI1071
aI1072
aI1073
aI1074
aI1075
aI1076
aI1077
aI1078
aI1079
aI1080
aI1081
aI1083
aI1084
aI1085
aI1086
aI1087
aI1088
aI1089
aI1090
aI1091
aI1092
aI1093
aI1094
aI1095
aI1096
aI1097
aI1099
aI1101
aI1102
aI1103
aI1104
aI1105
aI1106
aI1107
aI1108
aI1109
aI1110
aI1111
aI1112
aI1113
aI1114
aI1115
aI1117
aI1118
aI1119
aI1120
aI1122
aI1123
aI1124
aI1125
aI1126
aI1127
aI1129
aI1130
aI1131
aI1132
aI1133
aI1134
aI1135
aI1136
aI1137
aI1138
aI1139
aI1140
aI1142
aI1143
aI1144
aI1145
aI1146
aI1149
aI1150
aI1151
aI1152
aI1153
aI1155
aI1156
aI1157
aI1158
aI1160
aI1163
aI1164
aI1165
aI1166
aI1168
aI1169
aI1170
aI1172
aI1175
aI1176
aI1177
aI1178
aI1180
aI1184
aI1185
aI1188
aI1189
aI1190
aI1191
aI1194
aI1198
aI1199
aI1201
aI1205
aI1207
aI1209
aI1210
aI1211
aI1214
aI1217
aI1218
aI1221
aI1222
aI1223
aI1224
aI1225
aI1226
aI1233
aI1239
aI1240
aI1242
aI1245
aI1249
aI1250
aI1257
aI1260
aI1261
aI1262
aI1264
aI1275
aI1276
aI1280
aI1282
aI1287
aI1288
aI1299
aI1300
aI1305
aI1307
aI1312
aI1313
aI1316
aI1317
aI1318
aI1324
aI1331
aI1333
aI1341
aI1350
aI1371
aI1380
aI1384
aI1388
aI1391
aI1396
aI1410
aI1411
aI1437
aI1445
aI1456
aI1461
aI1469
aI1494
aI1519
aI1529
aI1539
aI1632
aI1644
aI1655
aI1726
aI1802
aI1827
aI1938
aI1971
aI1972
aI1985
aI2002
aI2042
as.