(dp1
S'counts'
p2
(lp3
I1
aI2
aI3
aI4
aI5
aI6
aI7
aI8
aI9
aI10
aI11
aI12
aI13
aI14
aI15
aI16
aI17
aI18
aI19
aI20
aI21
aI22
aI23
aI24
aI25
aI26
aI27
aI28
aI29
aI30
aI31
aI32
aI33
aI34
aI35
aI36
aI37
aI38
aI39
aI40
aI41
aI42
aI43
aI44
aI45
aI46
aI47
aI48
aI49
aI50
aI51
aI52
aI53
aI54
aI55
aI56
aI57
aI58
aI59
aI60
aI61
aI62
aI63
aI64
aI65
aI66
aI67
aI68
aI69
aI70
aI71
aI72
aI73
aI74
aI75
aI76
aI77
aI78
aI79
aI80
aI81
aI82
aI83
aI84
aI85
aI86
aI87
aI88
aI89
aI90
aI91
aI92
aI93
aI94
aI95
aI96
aI97
aI98
aI99
aI100
aI101
aI102
aI103
aI104
aI105
aI106
aI107
aI108
aI109
aI110
aI111
aI112
aI113
aI114
aI115
aI116
aI117
aI118
aI119
aI120
aI121
aI122
aI123
aI124
aI125
aI126
aI127
aI128
aI129
aI130
aI131
aI132
aI133
aI134
aI135
aI136
aI137
aI138
aI139
aI140
aI141
aI142
aI143
aI144
aI145
aI146
aI147
aI148
aI149
aI150
aI151
aI152
aI153
aI154
aI155
aI156
aI157
aI158
aI159
aI160
aI161
aI162
aI163
aI164
aI165
aI166
aI167
aI168
aI169
aI170
aI171
aI172
aI173
aI174
aI175
aI176
aI177
aI178
aI179
aI180
aI181
aI182
aI183
aI184
aI185
aI186
aI187
aI188
aI189
aI190
aI191
aI192
aI193
aI194
aI195
aI196
aI197
aI198
aI199
aI200
aI201
aI202
aI203
aI204
aI205
aI206
aI207
aI208
aI209
aI210
aI211
aI212
aI213
aI214
aI215
aI216
aI217
aI218
aI219
aI220
aI221
aI222
aI223
aI224
aI225
aI226
aI227
aI228
aI229
aI230
aI231
aI232
aI233
aI234
aI235
aI236
aI237
aI238
aI239
aI240
aI241
aI242
aI243
aI244
aI245
aI246
aI247
aI248
aI249
aI250
aI251
aI252
aI253
aI254
aI255
aI256
aI257
aI258
aI259
aI260
aI261
aI262
aI263
aI264
aI265
aI266
aI267
aI268
aI269
aI270
aI271
aI272
aI273
aI274
aI275
aI276
aI277
aI278
aI279
aI280
aI281
aI282
aI283
aI284
aI285
aI286
aI287
aI288
aI289
aI290
aI291
aI292
aI293
aI294
aI295
aI296
aI297
aI298
aI299
aI300
aI301
aI302
aI303
aI304
aI305
aI306
aI307
aI308
aI309
aI310
aI311
aI312
aI313
aI314
aI315
aI316
aI317
aI318
aI319
aI320
aI321
aI322
aI323
aI324
aI325
aI326
aI327
aI328
aI329
aI330
aI331
aI332
aI333
aI334
aI335
aI336
aI337
aI338
aI339
aI340
aI341
aI342
aI343
aI344
aI345
aI346
aI347
aI348
aI349
aI350
aI351
aI352
aI353
aI354
aI355
aI356
aI357
aI358
aI359
aI360
aI361
aI362
aI363
aI364
aI365
aI366
aI367
aI368
aI369
aI370
aI371
aI372
aI373
aI374
aI375
aI376
aI377
aI378
aI379
aI380
aI381
aI382
aI383
aI384
aI385
aI386
aI387
aI388
aI389
aI390
aI391
aI392
aI393
aI394
aI395
aI396
aI397
aI398
aI399
aI400
aI401
aI402
aI403
aI404
aI405
aI406
aI407
aI408
aI409
aI410
aI411
aI412
aI413
aI414
aI415
aI416
aI417
aI418
aI419
aI420
aI421
aI422
aI423
aI424
aI425
aI426
aI427
aI428
aI429
aI430
aI431
aI432
aI433
aI434
aI435
aI436
aI437
aI438
aI439
aI440
aI441
aI442
aI443
aI444
aI445
aI446
aI447
aI448
aI449
aI450
aI451
aI452
aI453
aI454
aI455
aI456
aI457
aI458
aI459
aI460
aI461
aI462
aI463
aI464
aI465
aI466
aI467
aI468
aI469
aI470
aI471
aI472
aI473
aI474
aI475
aI476
aI477
aI478
aI479
aI480
aI481
aI482
aI483
aI484
aI485
aI486
aI487
aI488
aI489
aI490
aI491
aI492
aI493
aI494
aI495
aI496
aI497
aI498
aI499
aI500
aI501
aI502
aI503
aI504
aI505
aI506
aI507
aI508
aI509
aI510
aI511
aI512
aI513
aI514
aI515
aI516
aI517
aI518
aI519
aI520
aI521
aI522
aI523
aI524
aI525
aI526
aI527
aI528
aI529
aI530
aI531
aI532
aI533
aI534
aI535
aI536
aI537
aI538
aI539
aI540
aI541
aI542
aI543
aI544
aI545
aI546
aI547
aI548
aI549
aI550
aI551
aI552
aI553
aI554
aI555
aI556
aI557
aI558
aI559
aI560
aI561
aI562
aI563
aI564
aI565
aI566
aI567
aI568
aI569
aI570
aI571
aI572
aI573
aI574
aI575
aI576
aI577
aI578
aI579
aI580
aI581
aI582
aI583
aI584
aI585
aI586
aI587
aI588
aI589
aI590
aI591
aI592
aI593
aI594
aI595
aI596
aI597
aI598
aI599
aI600
aI601
aI602
aI603
aI604
aI605
aI606
aI607
aI608
aI609
aI610
aI611
aI612
aI613
aI614
aI615
aI616
aI617
aI618
aI619
aI620
aI621
aI622
aI623
aI624
aI625
aI626
aI627
aI628
aI629
aI630
aI631
aI632
aI633
aI634
aI635
aI636
aI637
aI638
aI639
aI640
aI641
aI642
aI643
aI644
aI645
aI646
aI647
aI648
aI649
aI650
aI651
aI652
aI653
aI654
aI655
aI656
aI657
aI658
aI659
aI660
aI661
aI662
aI663
aI664
aI665
aI666
aI667
aI668
aI669
aI670
aI671
aI672
aI673
aI674
aI675
aI676
aI677
aI678
aI679
aI680
aI681
aI682
aI683
aI684
aI685
aI686
aI687
aI688
aI689
aI690
aI691
aI692
aI693
aI694
aI695
aI696
aI697
aI698
aI699
aI700
aI701
aI702
aI703
aI704
aI705
aI706
aI707
aI708
aI709
aI710
aI711
aI712
aI713
aI714
aI715
aI716
aI717
aI718
aI719
aI720
aI721
aI722
aI723
aI724
aI725
aI726
aI727
aI728
aI729
aI730
aI731
aI732
aI733
aI734
aI735
aI736
aI737
aI738
aI739
aI740
aI741
aI742
aI743
aI744
aI745
aI746
aI747
aI748
aI749
aI750
aI751
aI752
aI753
aI754
aI755
aI756
aI757
aI758
aI759
aI760
aI761
aI762
aI763
aI764
aI765
aI766
aI767
aI768
aI769
aI770
aI771
aI772
aI773
aI774
aI775
aI776
aI777
aI778
aI779
aI780
aI781
aI782
aI783
aI784
aI785
aI786
aI787
aI788
aI789
aI790
aI791
aI792
aI793
aI794
aI795
aI796
aI797
aI798
aI799
aI800
aI801
aI802
aI803
aI804
aI805
aI806
aI807
aI808
aI809
aI810
aI811
aI812
aI813
aI814
aI815
aI816
aI817
aI818
aI819
aI820
aI821
aI822
aI823
aI824
aI825
aI826
aI827
aI828
aI829
aI830
aI831
aI832
aI833
aI834
aI835
aI836
aI837
aI838
aI839
aI840
aI841
aI842
aI843
aI844
aI845
aI846
aI847
aI848
aI849
aI850
aI851
aI852
aI853
aI854
aI855
aI856
aI857
aI858
aI859
aI860
aI861
aI862
aI863
aI864
aI865
aI866
aI867
aI868
aI869
aI870
aI871
aI872
aI873
aI874
aI875
aI876
aI877
aI878
aI879
aI880
aI881
aI882
aI883
aI884
aI885
aI886
aI887
aI888
aI889
aI890
aI891
aI892
aI893
aI894
aI895
aI896
aI897
aI898
aI899
aI900
aI901
aI902
aI903
aI904
aI905
aI906
aI907
aI908
aI909
aI910
aI911
aI912
aI913
aI914
aI915
aI916
aI917
aI918
aI919
aI920
aI921
aI922
aI923
aI924
aI925
aI926
aI927
aI928
aI929
aI930
aI931
aI932
aI933
aI934
aI935
aI936
aI937
aI938
aI939
aI940
aI941
aI942
aI943
aI944
aI945
aI946
aI947
aI948
aI949
aI950
aI951
aI952
aI953
aI954
aI955
aI956
aI957
aI958
aI959
aI960
aI961
aI962
aI964
aI965
aI966
aI967
aI968
aI969
aI970
aI971
aI972
aI973
aI974
aI975
aI976
aI977
aI978
aI979
aI980
aI981
aI982
aI986
aI987
aI988
aI989
aI990
aI991
aI992
aI993
aI994
aI995
aI996
aI998
aI999
aI1000
aI1001
aI1003
aI1004
aI1005
aI1007
aI1008
aI1010
aI1011
aI1013
aI1015
aI1016
aI1017
aI1018
aI1019
aI1021
aI1023
aI1025
aI1026
aI1029
aI1031
aI1032
aI1033
aI1034
aI1035
aI1037
aI1038
aI1040
aI1044
aI1045
aI1046
aI1050
aI1052
aI1054
aI1057
aI1058
aI1060
aI1061
aI1062
aI1064
aI1066
aI1067
aI1068
aI1070
aI1076
aI1077
aI1082
aI1087
aI1089
aI1090
aI1091
aI1099
aI1104
aI1105
aI1108
aI1109
aI1111
aI1112
aI1114
aI1118
aI1121
aI1124
aI1138
aI1141
aI1143
aI1145
aI1149
aI1150
aI1152
aI1161
aI1180
aI1190
aI1196
aI1198
aI1200
aI1204
aI1213
aI1222
aI1229
aI1237
aI1238
aI1274
aI1290
aI1308
aI1368
aI1416
aI1508
asS'total'
p4
(lp5
I872794
aI172488
aI62061
aI32076
aI18435
aI12798
aI9240
aI7328
aI6804
aI6150
aI4818
aI4320
aI4511
aI3724
aI3675
aI3552
aI3315
aI2808
aI3458
aI3400
aI3486
aI2948
aI2622
aI3816
aI2950
aI2366
aI2781
aI3248
aI2146
aI2670
aI3255
aI3200
aI2343
aI2822
aI2625
aI2556
aI3626
aI1862
aI3198
aI2880
aI3485
aI2772
aI4558
aI3564
aI3420
aI2898
aI4042
aI2976
aI2842
aI3250
aI3723
aI3068
aI3233
aI3348
aI2805
aI3024
aI3477
aI2842
aI2537
aI4500
aI4331
aI4898
aI4095
aI5632
aI4030
aI4488
aI5293
aI4420
aI6279
aI6020
aI8378
aI8496
aI7884
aI7696
aI10275
aI10564
aI12628
aI13650
aI14852
aI13440
aI17334
aI17794
aI23406
aI21588
aI23035
aI21500
aI24099
aI26400
aI24831
aI27540
aI28119
aI27876
aI24645
aI26884
aI25175
aI24000
aI21922
aI22344
aI23067
aI19000
aI20604
aI17646
aI15965
aI15808
aI16800
aI10494
aI14017
aI11124
aI9483
aI11000
aI9324
aI8848
aI7684
aI7296
aI7590
aI6148
aI7020
aI8614
aI7497
aI8160
aI8470
aI8662
aI7995
aI7812
aI7625
aI7434
aI8255
aI8576
aI8514
aI8580
aI10611
aI11484
aI7315
aI9916
aI10800
aI10064
aI9590
aI9936
aI11954
aI13440
aI11703
aI13348
aI15015
aI14544
aI12325
aI12556
aI12936
aI12580
aI12367
aI14250
aI13892
aI15048
aI14841
aI13706
aI13950
aI17004
aI14444
aI15484
aI15900
aI16000
aI17066
aI14742
aI21842
aI16072
aI16665
aI12782
aI19372
aI13944
aI15886
aI13430
aI17442
aI17028
aI18338
aI12702
aI16100
aI16896
aI13806
aI14596
aI15931
aI18720
aI11765
aI13468
aI16287
aI15824
aI16095
aI14880
aI17391
aI13912
aI17955
aI16150
aI14516
aI14592
aI17563
aI16490
aI16965
aI19012
aI15760
aI16830
aI17114
aI15000
aI13266
aI15150
aI14819
aI12444
aI15785
aI14832
aI18009
aI15600
aI13794
aI15750
aI14770
aI13780
aI17253
aI11556
aI16985
aI12096
aI14756
aI12426
aI15987
aI13200
aI12818
aI14874
aI13603
aI13664
aI13725
aI16724
aI12712
aI14136
aI12366
aI14030
aI15477
aI17864
aI13514
aI15678
aI12925
aI16284
aI12561
aI14280
aI16252
aI14400
aI14460
aI13552
aI15795
aI13664
aI13475
aI15006
aI14326
aI14384
aI16434
aI16750
aI14558
aI16128
aI14927
aI13208
aI11220
aI18688
aI15420
aI17028
aI17612
aI13780
aI16704
aI18602
aI18673
aI20328
aI18815
aI16492
aI14151
aI12060
aI13719
aI15390
aI9214
aI15776
aI16107
aI16988
aI13475
aI18768
aI18005
aI15012
aI13113
aI14000
aI16860
aI16920
aI16980
aI18744
aI19665
aI18304
aI15211
aI23328
aI22542
aI16530
aI17751
aI17228
aI16408
aI15876
aI20650
aI15688
aI14553
aI19370
aI18239
aI15000
aI21973
aI19630
aI18786
aI19152
aI13725
aI24174
aI17499
aI24024
aI16995
aI18600
aI19593
aI18408
aI20971
aI19154
aI19530
aI21488
aI16801
aI15264
aI19459
aI21120
aI24717
aI15456
aI19703
aI21060
aI19500
aI21516
aI19293
aI18696
aI18095
aI22110
aI20522
aI19256
aI22644
aI17702
aI18425
aI20496
aI18535
aI23322
aI21696
aI21420
aI22506
aI22914
aI24696
aI19264
aI25875
aI19376
aI20126
aI21924
aI16752
aI16800
aI28782
aI20064
aI25416
aI21240
aI20945
aI17088
aI21063
aI18258
aI18668
aI24480
aI19855
aI24978
aI23595
aI26208
aI20805
aI20496
aI21653
aI18032
aI21033
aI22940
aI20405
aI17112
aI19769
aI26180
aI17625
aI25944
aI26390
aI25704
aI22740
aI22040
aI22860
aI18718
aI24129
aI23424
aI22330
aI25476
aI28251
aI23668
aI19450
aI24960
aI23069
aI26264
aI25938
aI21276
aI20540
aI20988
aI26996
aI23084
aI28329
aI28400
aI25263
aI23718
aI20956
aI24644
aI25920
aI22330
aI26048
aI27336
aI26176
aI24600
aI27126
aI20188
aI21063
aI26082
aI23655
aI21216
aI35028
aI22990
aI28911
aI22680
aI27786
aI29118
aI22842
aI24168
aI24225
aI22152
aI30317
aI31672
aI23166
aI24940
aI28015
aI31968
aI24681
aI25606
aI29580
aI34880
aI29279
aI25842
aI29852
aI25080
aI26901
aI26078
aI29681
aI28416
aI21360
aI33896
aI30843
aI29120
aI34573
aI31950
aI31119
aI23956
aI35334
aI26332
aI29575
aI27360
aI31990
aI34808
aI33966
aI24840
aI29043
aI34650
aI30095
aI28768
aI29760
aI34018
aI34558
aI29016
aI25326
aI19270
aI35325
aI29264
aI35475
aI33180
aI33725
aI29036
aI31959
aI25812
aI33051
aI27840
aI30303
aI35186
aI39606
aI38236
aI32010
aI32076
aI30194
aI26352
aI31296
aI35770
aI37807
aI42312
aI31059
aI42484
aI24255
aI33728
aI33299
aI40338
aI34930
aI32000
aI32565
aI34638
aI31689
aI40824
aI34340
aI38456
aI40053
aI42164
aI33594
aI27540
aI36792
aI39936
aI37449
aI27242
aI31930
aI39216
aI41877
aI30562
aI31659
aI31200
aI41680
aI35496
aI41317
aI40348
aI34650
aI34716
aI40052
aI35904
aI39146
aI42400
aI31860
aI47348
aI48503
aI44856
aI34775
aI36448
aI40275
aI42502
aI39347
aI41580
aI33001
aI42276
aI39096
aI38624
aI39240
aI29484
aI44854
aI36168
aI41175
aI55000
aI39121
aI35880
aI37604
aI32132
aI42735
aI40588
aI37876
aI46872
aI40248
aI50400
aI41514
aI43836
aI44477
aI43992
aI46895
aI37356
aI42525
aI44872
aI42675
aI37050
aI45109
aI40040
aI32088
aI55104
aI47725
aI39168
aI41544
aI39882
aI39951
aI49880
aI48804
aI33756
aI47806
aI49056
aI33345
aI33988
aI48721
aI44100
aI48887
aI39530
aI57327
aI38480
aI44475
aI45144
aI42245
aI44700
aI46566
aI45448
aI50316
aI46200
aI48080
aI54782
aI40401
aI52548
aI64735
aI35754
aI56451
aI41344
aI32886
aI50020
aI46436
aI48960
aI49653
aI44208
aI47355
aI53592
aI45658
aI50676
aI53234
aI37820
aI42228
aI61578
aI45479
aI51792
aI46250
aI51332
aI40128
aI48984
aI41514
aI56070
aI47325
aI55616
aI37980
aI51988
aI50800
aI46428
aI49686
aI52316
aI39618
aI40960
aI56408
aI53928
aI56584
aI36708
aI63210
aI47804
aI45937
aI43416
aI48675
aI55250
aI48825
aI53464
aI42445
aI47742
aI45850
aI49200
aI44676
aI48692
aI40199
aI49500
aI33050
aI38396
aI49725
aI45152
aI45220
aI45288
aI36018
aI48764
aI32112
aI52930
aI50325
aI37632
aI49129
aI52572
aI45900
aI45968
aI44682
aI46104
aI42777
aI59840
aI48351
aI47058
aI45078
aI47880
aI35620
aI45962
aI33663
aI41968
aI54431
aI42090
aI48370
aI38060
aI31878
aI46498
aI36140
aI46632
aI41820
aI39786
aI46134
aI44800
aI46967
aI37206
aI46398
aI49280
aI39480
aI43066
aI30401
aI40356
aI41122
aI42600
aI47637
aI45568
aI41354
aI37842
aI32175
aI37232
aI53058
aI46670
aI42421
aI43200
aI37492
aI42598
aI41211
aI44164
aI33350
aI42108
aI45074
aI38584
aI47385
aI37960
aI29971
aI27816
aI30053
aI33030
aI38220
aI33120
aI47905
aI32472
aI35472
aI41440
aI31863
aI34132
aI37150
aI32736
aI29055
aI34316
aI34362
aI47124
aI28462
aI35250
aI33795
aI30832
aI36144
aI30914
aI35485
aI21168
aI36336
aI35626
aI32637
aI36480
aI18264
aI38862
aI35861
aI21392
aI21420
aI31406
aI29913
aI27648
aI26915
aI32340
aI37779
aI40144
aI24736
aI30960
aI28675
aI32592
aI24864
aI32676
aI14801
aI23400
aI40612
aI33626
aI26622
aI39200
aI28260
aI22794
aI30693
aI25216
aI26037
aI36340
aI26103
aI30096
aI34892
aI24614
aI24645
aI20696
aI15940
aI20748
aI25568
aI24800
aI26433
aI13634
aI19272
aI26532
aI23345
aI17732
aI20982
aI25856
aI16180
aI28350
aI32440
aI23548
aI22764
aI16280
aI26895
aI27744
aI17974
aI25358
aI22932
aI25420
aI16420
aI20550
aI20575
aI13184
aI18975
aI18172
aI19021
aI28152
aI8290
aI15770
aI19944
aI11648
aI23324
aI15012
aI15865
aI15048
aI13392
aI13408
aI15941
aI21840
aI15138
aI6736
aI14331
aI15192
aI14365
aI16074
aI8470
aI5936
aI16980
aI12750
aI11063
aI11928
aI20472
aI7686
aI14535
aI11984
aI9427
aI8580
aI15462
aI15480
aI5166
aI9482
aI12082
aI14688
aI17300
aI10392
aI8670
aI9548
aI8690
aI11310
aI12194
aI14824
aI14841
aI13110
aI4375
aI15768
aI8770
aI12292
aI10548
aI9680
aI11453
aI11466
aI12362
aI3536
aI13275
aI14176
aI9757
aI7992
aI9779
aI4450
aI10692
aI9812
aI10716
aI7152
aI7160
aI3584
aI5382
aI13470
aI7192
aI3600
aI9911
aI5412
aI4515
aI4520
aI2715
aI4530
aI5442
aI14528
aI9999
aI8190
aI9110
aI3648
aI10956
aI3656
aI7320
aI5496
aI7336
aI11016
aI4595
aI4600
aI7368
aI7376
aI1846
aI5544
aI9250
aI5556
aI4635
aI5568
aI9290
aI9300
aI10241
aI2796
aI8397
aI1868
aI8415
aI5616
aI3748
aI2814
aI8451
aI3760
aI4705
aI942
aI4715
aI8496
aI2835
aI1892
aI2841
aI3792
aI7592
aI5700
aI2853
aI952
aI953
aI8586
aI7640
aI1912
aI1914
aI3832
aI3836
aI1920
aI961
aI6734
aI5784
aI2895
aI4830
aI6769
aI1936
aI12597
aI970
aI5826
aI1944
aI8757
aI1948
aI1950
aI976
aI2931
aI1956
aI1958
aI1960
aI2943
aI2946
aI986
aI1974
aI2964
aI1978
aI1980
aI991
aI4960
aI1986
aI994
aI3980
aI2988
aI998
aI2997
aI3000
aI8008
aI4012
aI1004
aI4020
aI5035
aI2016
aI6060
aI2022
aI4052
aI1015
aI1016
aI3051
aI3054
aI3057
aI1021
aI2046
aI1025
aI2052
aI3087
aI3093
aI1032
aI1033
aI2068
aI4140
aI2074
aI1038
aI2080
aI2088
aI1045
aI3138
aI3150
aI1052
aI4216
aI2114
aI2116
aI2120
aI1061
aI1062
aI1064
aI3198
aI1067
aI1068
aI1070
aI1076
aI2154
aI1082
aI1087
aI2178
aI1090
aI2182
aI1099
aI1104
aI1105
aI1108
aI2218
aI2222
aI1112
aI2228
aI2236
aI7847
aI2248
aI2276
aI1141
aI2286
aI2290
aI3447
aI2300
aI2304
aI1161
aI1180
aI2380
aI2392
aI2396
aI1200
aI1204
aI2426
aI2444
aI1229
aI2474
aI2476
aI2548
aI2580
aI2616
aI2736
aI1416
aI3016
asS'fm'
p6
(lp7
I872794
aI86244
aI20687
aI8019
aI3687
aI2133
aI1320
aI916
aI756
aI615
aI438
aI360
aI347
aI266
aI245
aI222
aI195
aI156
aI182
aI170
aI166
aI134
aI114
aI159
aI118
aI91
aI103
aI116
aI74
aI89
aI105
aI100
aI71
aI83
aI75
aI71
aI98
aI49
aI82
aI72
aI85
aI66
aI106
aI81
aI76
aI63
aI86
aI62
aI58
aI65
aI73
aI59
aI61
aI62
aI51
aI54
aI61
aI49
aI43
aI75
aI71
aI79
aI65
aI88
aI62
aI68
aI79
aI65
aI91
aI86
aI118
aI118
aI108
aI104
aI137
aI139
aI164
aI175
aI188
aI168
aI214
aI217
aI282
aI257
aI271
aI250
aI277
aI300
aI279
aI306
aI309
aI303
aI265
aI286
aI265
aI250
aI226
aI228
aI233
aI190
aI204
aI173
aI155
aI152
aI160
aI99
aI131
aI103
aI87
aI100
aI84
aI79
aI68
aI64
aI66
aI53
aI60
aI73
aI63
aI68
aI70
aI71
aI65
aI63
aI61
aI59
aI65
aI67
aI66
aI66
aI81
aI87
aI55
aI74
aI80
aI74
aI70
aI72
aI86
aI96
aI83
aI94
aI105
aI101
aI85
aI86
aI88
aI85
aI83
aI95
aI92
aI99
aI97
aI89
aI90
aI109
aI92
aI98
aI100
aI100
aI106
aI91
aI134
aI98
aI101
aI77
aI116
aI83
aI94
aI79
aI102
aI99
aI106
aI73
aI92
aI96
aI78
aI82
aI89
aI104
aI65
aI74
aI89
aI86
aI87
aI80
aI93
aI74
aI95
aI85
aI76
aI76
aI91
aI85
aI87
aI97
aI80
aI85
aI86
aI75
aI66
aI75
aI73
aI61
aI77
aI72
aI87
aI75
aI66
aI75
aI70
aI65
aI81
aI54
aI79
aI56
aI68
aI57
aI73
aI60
aI58
aI67
aI61
aI61
aI61
aI74
aI56
aI62
aI54
aI61
aI67
aI77
aI58
aI67
aI55
aI69
aI53
aI60
aI68
aI60
aI60
aI56
aI65
aI56
aI55
aI61
aI58
aI58
aI66
aI67
aI58
aI64
aI59
aI52
aI44
aI73
aI60
aI66
aI68
aI53
aI64
aI71
aI71
aI77
aI71
aI62
aI53
aI45
aI51
aI57
aI34
aI58
aI59
aI62
aI49
aI68
aI65
aI54
aI47
aI50
aI60
aI60
aI60
aI66
aI69
aI64
aI53
aI81
aI78
aI57
aI61
aI59
aI56
aI54
aI70
aI53
aI49
aI65
aI61
aI50
aI73
aI65
aI62
aI63
aI45
aI79
aI57
aI78
aI55
aI60
aI63
aI59
aI67
aI61
aI62
aI68
aI53
aI48
aI61
aI66
aI77
aI48
aI61
aI65
aI60
aI66
aI59
aI57
aI55
aI67
aI62
aI58
aI68
aI53
aI55
aI61
aI55
aI69
aI64
aI63
aI66
aI67
aI72
aI56
aI75
aI56
aI58
aI63
aI48
aI48
aI82
aI57
aI72
aI60
aI59
aI48
aI59
aI51
aI52
aI68
aI55
aI69
aI65
aI72
aI57
aI56
aI59
aI49
aI57
aI62
aI55
aI46
aI53
aI70
aI47
aI69
aI70
aI68
aI60
aI58
aI60
aI49
aI63
aI61
aI58
aI66
aI73
aI61
aI50
aI64
aI59
aI67
aI66
aI54
aI52
aI53
aI68
aI58
aI71
aI71
aI63
aI59
aI52
aI61
aI64
aI55
aI64
aI67
aI64
aI60
aI66
aI49
aI51
aI63
aI57
aI51
aI84
aI55
aI69
aI54
aI66
aI69
aI54
aI57
aI57
aI52
aI71
aI74
aI54
aI58
aI65
aI74
aI57
aI59
aI68
aI80
aI67
aI59
aI68
aI57
aI61
aI59
aI67
aI64
aI48
aI76
aI69
aI65
aI77
aI71
aI69
aI53
aI78
aI58
aI65
aI60
aI70
aI76
aI74
aI54
aI63
aI75
aI65
aI62
aI64
aI73
aI74
aI62
aI54
aI41
aI75
aI62
aI75
aI70
aI71
aI61
aI67
aI54
aI69
aI58
aI63
aI73
aI82
aI79
aI66
aI66
aI62
aI54
aI64
aI73
aI77
aI86
aI63
aI86
aI49
aI68
aI67
aI81
aI70
aI64
aI65
aI69
aI63
aI81
aI68
aI76
aI79
aI83
aI66
aI54
aI72
aI78
aI73
aI53
aI62
aI76
aI81
aI59
aI61
aI60
aI80
aI68
aI79
aI77
aI66
aI66
aI76
aI68
aI74
aI80
aI60
aI89
aI91
aI84
aI65
aI68
aI75
aI79
aI73
aI77
aI61
aI78
aI72
aI71
aI72
aI54
aI82
aI66
aI75
aI100
aI71
aI65
aI68
aI58
aI77
aI73
aI68
aI84
aI72
aI90
aI74
aI78
aI79
aI78
aI83
aI66
aI75
aI79
aI75
aI65
aI79
aI70
aI56
aI96
aI83
aI68
aI72
aI69
aI69
aI86
aI84
aI58
aI82
aI84
aI57
aI58
aI83
aI75
aI83
aI67
aI97
aI65
aI75
aI76
aI71
aI75
aI78
aI76
aI84
aI77
aI80
aI91
aI67
aI87
aI107
aI59
aI93
aI68
aI54
aI82
aI76
aI80
aI81
aI72
aI77
aI87
aI74
aI82
aI86
aI61
aI68
aI99
aI73
aI83
aI74
aI82
aI64
aI78
aI66
aI89
aI75
aI88
aI60
aI82
aI80
aI73
aI78
aI82
aI62
aI64
aI88
aI84
aI88
aI57
aI98
aI74
aI71
aI67
aI75
aI85
aI75
aI82
aI65
aI73
aI70
aI75
aI68
aI74
aI61
aI75
aI50
aI58
aI75
aI68
aI68
aI68
aI54
aI73
aI48
aI79
aI75
aI56
aI73
aI78
aI68
aI68
aI66
aI68
aI63
aI88
aI71
aI69
aI66
aI70
aI52
aI67
aI49
aI61
aI79
aI61
aI70
aI55
aI46
aI67
aI52
aI67
aI60
aI57
aI66
aI64
aI67
aI53
aI66
aI70
aI56
aI61
aI43
aI57
aI58
aI60
aI67
aI64
aI58
aI53
aI45
aI52
aI74
aI65
aI59
aI60
aI52
aI59
aI57
aI61
aI46
aI58
aI62
aI53
aI65
aI52
aI41
aI38
aI41
aI45
aI52
aI45
aI65
aI44
aI48
aI56
aI43
aI46
aI50
aI44
aI39
aI46
aI46
aI63
aI38
aI47
aI45
aI41
aI48
aI41
aI47
aI28
aI48
aI47
aI43
aI48
aI24
aI51
aI47
aI28
aI28
aI41
aI39
aI36
aI35
aI42
aI49
aI52
aI32
aI40
aI37
aI42
aI32
aI42
aI19
aI30
aI52
aI43
aI34
aI50
aI36
aI29
aI39
aI32
aI33
aI46
aI33
aI38
aI44
aI31
aI31
aI26
aI20
aI26
aI32
aI31
aI33
aI17
aI24
aI33
aI29
aI22
aI26
aI32
aI20
aI35
aI40
aI29
aI28
aI20
aI33
aI34
aI22
aI31
aI28
aI31
aI20
aI25
aI25
aI16
aI23
aI22
aI23
aI34
aI10
aI19
aI24
aI14
aI28
aI18
aI19
aI18
aI16
aI16
aI19
aI26
aI18
aI8
aI17
aI18
aI17
aI19
aI10
aI7
aI20
aI15
aI13
aI14
aI24
aI9
aI17
aI14
aI11
aI10
aI18
aI18
aI6
aI11
aI14
aI17
aI20
aI12
aI10
aI11
aI10
aI13
aI14
aI17
aI17
aI15
aI5
aI18
aI10
aI14
aI12
aI11
aI13
aI13
aI14
aI4
aI15
aI16
aI11
aI9
aI11
aI5
aI12
aI11
aI12
aI8
aI8
aI4
aI6
aI15
aI8
aI4
aI11
aI6
aI5
aI5
aI3
aI5
aI6
aI16
aI11
aI9
aI10
aI4
aI12
aI4
aI8
aI6
aI8
aI12
aI5
aI5
aI8
aI8
aI2
aI6
aI10
aI6
aI5
aI6
aI10
aI10
aI11
aI3
aI9
aI2
aI9
aI6
aI4
aI3
aI9
aI4
aI5
aI1
aI5
aI9
aI3
aI2
aI3
aI4
aI8
aI6
aI3
aI1
aI1
aI9
aI8
aI2
aI2
aI4
aI4
aI2
aI1
aI7
aI6
aI3
aI5
aI7
aI2
aI13
aI1
aI6
aI2
aI9
aI2
aI2
aI1
aI3
aI2
aI2
aI2
aI3
aI3
aI1
aI2
aI3
aI2
aI2
aI1
aI5
aI2
aI1
aI4
aI3
aI1
aI3
aI3
aI8
aI4
aI1
aI4
aI5
aI2
aI6
aI2
aI4
aI1
aI1
aI3
aI3
aI3
aI1
aI2
aI1
aI2
aI3
aI3
aI1
aI1
aI2
aI4
aI2
aI1
aI2
aI2
aI1
aI3
aI3
aI1
aI4
aI2
aI2
aI2
aI1
aI1
aI1
aI3
aI1
aI1
aI1
aI1
aI2
aI1
aI1
aI2
aI1
aI2
aI1
aI1
aI1
aI1
aI2
aI2
aI1
aI2
aI2
aI7
aI2
aI2
aI1
aI2
aI2
aI3
aI2
aI2
aI1
aI1
aI2
aI2
aI2
aI1
aI1
aI2
aI2
aI1
aI2
aI2
aI2
aI2
aI2
aI2
aI1
aI2
as.